target datalayout = "e-m:e-p270:32:32-p271:32:32-p272:64:64-i64:64-i128:128-f80:128-n8:16:32:64-S128"
target triple = "x86_64-pc-linux-gnu"

@.str.2 = private unnamed_addr constant [97 x i8] c"generated/home/dtcxzyw/WorkSpace/Projects/compilers/llvm-opt-benchmark/bench/hdf5/hdf5/src/H5T.c\00", align 1
@H5E_DATATYPE_g = external global i64, align 8
@H5E_CANTINIT_g = external global i64, align 8
@H5E_ARGS_g = external global i64, align 8
@H5E_BADTYPE_g = external global i64, align 8
@.str.12 = private unnamed_addr constant [15 x i8] c"not a datatype\00", align 1
@H5_libinit_g = external global i8, align 1
@H5_libterm_g = external global i8, align 1
@H5E_FUNC_g = external global i64, align 8
@.str.221 = private unnamed_addr constant [30 x i8] c"library initialization failed\00", align 1
@H5E_CANTSET_g = external global i64, align 8
@.str.222 = private unnamed_addr constant [22 x i8] c"can't set API context\00", align 1
@H5E_CANTGET_g = external global i64, align 8
@__func__.H5Tdetect_class = private unnamed_addr constant [16 x i8] c"H5Tdetect_class\00", align 1
@.str.247 = private unnamed_addr constant [21 x i8] c"not a datatype class\00", align 1
@.str.248 = private unnamed_addr constant [25 x i8] c"can't get datatype class\00", align 1

; Function Attrs: nounwind uwtable
define i32 @H5Tdetect_class(i64 noundef %0, i32 noundef %1) #0 {
  %3 = alloca i64, align 8
  %4 = alloca i32, align 4
  %5 = alloca ptr, align 8
  %6 = alloca i32, align 4
  %7 = alloca i8, align 1
  %8 = alloca i8, align 1
  store i64 %0, ptr %3, align 8
  store i32 %1, ptr %4, align 4
  store i8 0, ptr %7, align 1
  store i8 0, ptr %8, align 1
  %9 = load i8, ptr @H5_libinit_g, align 1
  %10 = trunc i8 %9 to i1
  br i1 %10, label %15, label %11

11:                                               ; preds = %2
  %12 = load i8, ptr @H5_libterm_g, align 1
  %13 = trunc i8 %12 to i1
  %14 = xor i1 %13, true
  br label %15

15:                                               ; preds = %11, %2
  %16 = phi i1 [ false, %2 ], [ %14, %11 ]
  %17 = xor i1 %16, true
  %18 = xor i1 %17, true
  %19 = zext i1 %18 to i32
  %20 = sext i32 %19 to i64
  %21 = icmp ne i64 %20, 0
  br i1 %21, label %22, label %46

22:                                               ; preds = %15
  %23 = call i32 @H5_init_library()
  %24 = icmp slt i32 %23, 0
  %25 = xor i1 %24, true
  %26 = xor i1 %25, true
  %27 = zext i1 %26 to i32
  %28 = sext i32 %27 to i64
  %29 = icmp ne i64 %28, 0
  br i1 %29, label %30, label %45

30:                                               ; preds = %22
  br label %31

31:                                               ; preds = %30
  br label %32

32:                                               ; preds = %31
  br label %33

33:                                               ; preds = %32
  %34 = load i64, ptr @H5E_FUNC_g, align 8
  %35 = load i64, ptr @H5E_CANTINIT_g, align 8
  %36 = call i32 (ptr, ptr, i32, i64, i64, ptr, ...) @H5E_printf_stack(ptr noundef @.str.2, ptr noundef @__func__.H5Tdetect_class, i32 noundef 2283, i64 noundef %34, i64 noundef %35, ptr noundef @.str.221)
  br label %37

37:                                               ; preds = %33
  store i8 1, ptr %8, align 1
  %38 = load i8, ptr %8, align 1
  %39 = trunc i8 %38 to i1
  %40 = zext i1 %39 to i8
  store i8 %40, ptr %8, align 1
  br label %41

41:                                               ; preds = %37
  br label %42

42:                                               ; preds = %41
  store i32 -1, ptr %6, align 4
  br label %132

43:                                               ; No predecessors!
  br label %44

44:                                               ; preds = %43
  br label %45

45:                                               ; preds = %44, %22
  br label %46

46:                                               ; preds = %45, %15
  %47 = call i32 @H5CX_push()
  %48 = icmp slt i32 %47, 0
  %49 = xor i1 %48, true
  %50 = xor i1 %49, true
  %51 = zext i1 %50 to i32
  %52 = sext i32 %51 to i64
  %53 = icmp ne i64 %52, 0
  br i1 %53, label %54, label %69

54:                                               ; preds = %46
  br label %55

55:                                               ; preds = %54
  br label %56

56:                                               ; preds = %55
  br label %57

57:                                               ; preds = %56
  %58 = load i64, ptr @H5E_FUNC_g, align 8
  %59 = load i64, ptr @H5E_CANTSET_g, align 8
  %60 = call i32 (ptr, ptr, i32, i64, i64, ptr, ...) @H5E_printf_stack(ptr noundef @.str.2, ptr noundef @__func__.H5Tdetect_class, i32 noundef 2283, i64 noundef %58, i64 noundef %59, ptr noundef @.str.222)
  br label %61

61:                                               ; preds = %57
  store i8 1, ptr %8, align 1
  %62 = load i8, ptr %8, align 1
  %63 = trunc i8 %62 to i1
  %64 = zext i1 %63 to i8
  store i8 %64, ptr %8, align 1
  br label %65

65:                                               ; preds = %61
  br label %66

66:                                               ; preds = %65
  store i32 -1, ptr %6, align 4
  br label %132

67:                                               ; No predecessors!
  br label %68

68:                                               ; preds = %67
  br label %70

69:                                               ; preds = %46
  store i8 1, ptr %7, align 1
  br label %70

70:                                               ; preds = %69, %68
  %71 = call i32 @H5E_clear_stack()
  %72 = load i64, ptr %3, align 8
  %73 = call ptr @H5I_object_verify(i64 noundef %72, i32 noundef 3)
  store ptr %73, ptr %5, align 8
  %74 = icmp eq ptr null, %73
  br i1 %74, label %75, label %90

75:                                               ; preds = %70
  br label %76

76:                                               ; preds = %75
  br label %77

77:                                               ; preds = %76
  br label %78

78:                                               ; preds = %77
  %79 = load i64, ptr @H5E_ARGS_g, align 8
  %80 = load i64, ptr @H5E_BADTYPE_g, align 8
  %81 = call i32 (ptr, ptr, i32, i64, i64, ptr, ...) @H5E_printf_stack(ptr noundef @.str.2, ptr noundef @__func__.H5Tdetect_class, i32 noundef 2287, i64 noundef %79, i64 noundef %80, ptr noundef @.str.12)
  br label %82

82:                                               ; preds = %78
  store i8 1, ptr %8, align 1
  %83 = load i8, ptr %8, align 1
  %84 = trunc i8 %83 to i1
  %85 = zext i1 %84 to i8
  store i8 %85, ptr %8, align 1
  br label %86

86:                                               ; preds = %82
  br label %87

87:                                               ; preds = %86
  store i32 -1, ptr %6, align 4
  br label %132

88:                                               ; No predecessors!
  br label %89

89:                                               ; preds = %88
  br label %90

90:                                               ; preds = %89, %70
  %91 = load i32, ptr %4, align 4
  %92 = icmp sgt i32 %91, -1
  br i1 %92, label %93, label %96

93:                                               ; preds = %90
  %94 = load i32, ptr %4, align 4
  %95 = icmp slt i32 %94, 11
  br i1 %95, label %111, label %96

96:                                               ; preds = %93, %90
  br label %97

97:                                               ; preds = %96
  br label %98

98:                                               ; preds = %97
  br label %99

99:                                               ; preds = %98
  %100 = load i64, ptr @H5E_ARGS_g, align 8
  %101 = load i64, ptr @H5E_BADTYPE_g, align 8
  %102 = call i32 (ptr, ptr, i32, i64, i64, ptr, ...) @H5E_printf_stack(ptr noundef @.str.2, ptr noundef @__func__.H5Tdetect_class, i32 noundef 2289, i64 noundef %100, i64 noundef %101, ptr noundef @.str.247)
  br label %103

103:                                              ; preds = %99
  store i8 1, ptr %8, align 1
  %104 = load i8, ptr %8, align 1
  %105 = trunc i8 %104 to i1
  %106 = zext i1 %105 to i8
  store i8 %106, ptr %8, align 1
  br label %107

107:                                              ; preds = %103
  br label %108

108:                                              ; preds = %107
  store i32 -1, ptr %6, align 4
  br label %132

109:                                              ; No predecessors!
  br label %110

110:                                              ; preds = %109
  br label %111

111:                                              ; preds = %110, %93
  %112 = load ptr, ptr %5, align 8
  %113 = load i32, ptr %4, align 4
  %114 = call i32 @H5T_detect_class(ptr noundef %112, i32 noundef %113, i1 noundef zeroext true)
  store i32 %114, ptr %6, align 4
  %115 = icmp slt i32 %114, 0
  br i1 %115, label %116, label %131

116:                                              ; preds = %111
  br label %117

117:                                              ; preds = %116
  br label %118

118:                                              ; preds = %117
  br label %119

119:                                              ; preds = %118
  %120 = load i64, ptr @H5E_DATATYPE_g, align 8
  %121 = load i64, ptr @H5E_CANTGET_g, align 8
  %122 = call i32 (ptr, ptr, i32, i64, i64, ptr, ...) @H5E_printf_stack(ptr noundef @.str.2, ptr noundef @__func__.H5Tdetect_class, i32 noundef 2293, i64 noundef %120, i64 noundef %121, ptr noundef @.str.248)
  br label %123

123:                                              ; preds = %119
  store i8 1, ptr %8, align 1
  %124 = load i8, ptr %8, align 1
  %125 = trunc i8 %124 to i1
  %126 = zext i1 %125 to i8
  store i8 %126, ptr %8, align 1
  br label %127

127:                                              ; preds = %123
  br label %128

128:                                              ; preds = %127
  store i32 -1, ptr %6, align 4
  br label %132

129:                                              ; No predecessors!
  br label %130

130:                                              ; preds = %129
  br label %131

131:                                              ; preds = %130, %111
  br label %132

132:                                              ; preds = %131, %128, %108, %87, %66, %42
  %133 = load i8, ptr %7, align 1
  %134 = trunc i8 %133 to i1
  %135 = xor i1 %134, true
  %136 = xor i1 %135, true
  %137 = zext i1 %136 to i32
  %138 = sext i32 %137 to i64
  %139 = icmp ne i64 %138, 0
  br i1 %139, label %140, label %142

140:                                              ; preds = %132
  %141 = call i32 @H5CX_pop(i1 noundef zeroext true)
  store i8 0, ptr %7, align 1
  br label %142

142:                                              ; preds = %140, %132
  %143 = load i8, ptr %8, align 1
  %144 = trunc i8 %143 to i1
  %145 = xor i1 %144, true
  %146 = xor i1 %145, true
  %147 = zext i1 %146 to i32
  %148 = sext i32 %147 to i64
  %149 = icmp ne i64 %148, 0
  br i1 %149, label %150, label %152

150:                                              ; preds = %142
  %151 = call i32 @H5E_dump_api_stack()
  br label %152

152:                                              ; preds = %150, %142
  %153 = load i32, ptr %6, align 4
  ret i32 %153
}