; Function Attrs: nounwind uwtable
define range(i32 -1, -2147483648) i32 @H5Tdetect_class(i64 noundef %0, i32 noundef %1) local_unnamed_addr #0 {
  %3 = load i8, ptr @H5_libinit_g, align 1
  %4 = trunc i8 %3 to i1
  %5 = load i8, ptr @H5_libterm_g, align 1
  %6 = trunc i8 %5 to i1
  %7 = select i1 %4, i1 true, i1 %6
  br i1 %7, label %15, label %8

8:                                                ; preds = %2
  %9 = tail call i32 @H5_init_library() #17
  %10 = icmp slt i32 %9, 0
  br i1 %10, label %11, label %15

11:                                               ; preds = %8
  %12 = load i64, ptr @H5E_FUNC_g, align 8
  %13 = load i64, ptr @H5E_CANTINIT_g, align 8
  %14 = tail call i32 (ptr, ptr, i32, i64, i64, ptr, ...) @H5E_printf_stack(ptr noundef nonnull @.str.2, ptr noundef nonnull @__func__.H5Tdetect_class, i32 noundef 2283, i64 noundef %12, i64 noundef %13, ptr noundef nonnull @.str.221) #17
  br label %.thread26

15:                                               ; preds = %8, %2
  %16 = tail call i32 @H5CX_push() #17
  %17 = icmp slt i32 %16, 0
  br i1 %17, label %18, label %22

18:                                               ; preds = %15
  %19 = load i64, ptr @H5E_FUNC_g, align 8
  %20 = load i64, ptr @H5E_CANTSET_g, align 8
  %21 = tail call i32 (ptr, ptr, i32, i64, i64, ptr, ...) @H5E_printf_stack(ptr noundef nonnull @.str.2, ptr noundef nonnull @__func__.H5Tdetect_class, i32 noundef 2283, i64 noundef %19, i64 noundef %20, ptr noundef nonnull @.str.222) #17
  br label %.thread26

22:                                               ; preds = %15
  %23 = tail call i32 @H5E_clear_stack() #17
  %24 = tail call ptr @H5I_object_verify(i64 noundef %0, i32 noundef 3) #17
  %25 = icmp eq ptr %24, null
  br i1 %25, label %26, label %30

26:                                               ; preds = %22
  %27 = load i64, ptr @H5E_ARGS_g, align 8
  %28 = load i64, ptr @H5E_BADTYPE_g, align 8
  %29 = tail call i32 (ptr, ptr, i32, i64, i64, ptr, ...) @H5E_printf_stack(ptr noundef nonnull @.str.2, ptr noundef nonnull @__func__.H5Tdetect_class, i32 noundef 2287, i64 noundef %27, i64 noundef %28, ptr noundef nonnull @.str.12) #17
  br label %.thread32

30:                                               ; preds = %22
  %or.cond = icmp ult i32 %1, 11
  br i1 %or.cond, label %35, label %31

31:                                               ; preds = %30
  %32 = load i64, ptr @H5E_ARGS_g, align 8
  %33 = load i64, ptr @H5E_BADTYPE_g, align 8
  %34 = tail call i32 (ptr, ptr, i32, i64, i64, ptr, ...) @H5E_printf_stack(ptr noundef nonnull @.str.2, ptr noundef nonnull @__func__.H5Tdetect_class, i32 noundef 2289, i64 noundef %32, i64 noundef %33, ptr noundef nonnull @.str.247) #17
  br label %.thread32

35:                                               ; preds = %30
  %36 = tail call i32 @H5T_detect_class(ptr noundef nonnull %24, i32 noundef %1, i1 noundef zeroext true)
  %37 = icmp slt i32 %36, 0
  br i1 %37, label %38, label %43

38:                                               ; preds = %35
  %39 = load i64, ptr @H5E_DATATYPE_g, align 8
  %40 = load i64, ptr @H5E_CANTGET_g, align 8
  %41 = tail call i32 (ptr, ptr, i32, i64, i64, ptr, ...) @H5E_printf_stack(ptr noundef nonnull @.str.2, ptr noundef nonnull @__func__.H5Tdetect_class, i32 noundef 2293, i64 noundef %39, i64 noundef %40, ptr noundef nonnull @.str.248) #17
  br label %.thread32

.thread32:                                        ; preds = %31, %38, %26
  %42 = tail call i32 @H5CX_pop(i1 noundef zeroext true) #17
  br label %.thread26

43:                                               ; preds = %35
  %44 = tail call i32 @H5CX_pop(i1 noundef zeroext true) #17
  br label %46

.thread26:                                        ; preds = %18, %11, %.thread32
  %45 = tail call i32 @H5E_dump_api_stack() #17
  br label %46

46:                                               ; preds = %43, %.thread26
  %.0142129 = phi i32 [ -1, %.thread26 ], [ %36, %43 ]
  ret i32 %.0142129
}